; Function Attrs: nounwind uwtable
define dso_local noundef zeroext i1 @listForeignServers(ptr noundef %0, i1 noundef zeroext %1) local_unnamed_addr #0 {
  %3 = alloca %struct.PQExpBufferData, align 8
  %4 = alloca i32, align 4
  %5 = alloca %struct.PQExpBufferData, align 8
  %6 = alloca %struct.printQueryOpt, align 8
  call void @llvm.lifetime.start.p0(i64 24, ptr nonnull %5) #8
  call void @llvm.lifetime.start.p0(i64 168, ptr nonnull %6) #8
  call void @llvm.memcpy.p0.p0.i64(ptr noundef nonnull align 8 dereferenceable(168) %6, ptr noundef nonnull align 8 dereferenceable(168) getelementptr inbounds nuw (i8, ptr @pset, i64 48), i64 168, i1 false)
  call void @initPQExpBuffer(ptr noundef nonnull %5) #8
  call void (ptr, ptr, ...) @printfPQExpBuffer(ptr noundef nonnull %5, ptr noundef nonnull @.str.479, ptr noundef nonnull @.str.2, ptr noundef nonnull @.str.26, ptr noundef nonnull @.str.480) #8
  br i1 %1, label %7, label %.critedge

7:                                                ; preds = %2
  call void @appendPQExpBufferStr(ptr noundef nonnull %5, ptr noundef nonnull @.str.28) #8
  call void (ptr, ptr, ...) @appendPQExpBuffer(ptr noundef nonnull %5, ptr noundef nonnull @.str.916, ptr noundef nonnull @.str.481, ptr noundef nonnull @.str.917, ptr noundef nonnull @.str.481, ptr noundef nonnull @.str.167) #8
  call void (ptr, ptr, ...) @appendPQExpBuffer(ptr noundef nonnull %5, ptr noundef nonnull @.str.482, ptr noundef nonnull @.str.18, ptr noundef nonnull @.str.483, ptr noundef nonnull @.str.474, ptr noundef nonnull @.str.6) #8
  call void @appendPQExpBufferStr(ptr noundef nonnull %5, ptr noundef nonnull @.str.484) #8
  br label %.critedge

.critedge:                                        ; preds = %2, %7
  %.str.484.sink = phi ptr [ @.str.485, %7 ], [ @.str.484, %2 ]
  call void @appendPQExpBufferStr(ptr noundef nonnull %5, ptr noundef nonnull %.str.484.sink) #8
  call void @llvm.lifetime.start.p0(i64 24, ptr nonnull %3) #8
  call void @llvm.lifetime.start.p0(i64 4, ptr nonnull %4) #8
  call void @initPQExpBuffer(ptr noundef nonnull %3) #8
  %8 = load ptr, ptr @pset, align 8
  %9 = call zeroext i1 @processSQLNamePattern(ptr noundef %8, ptr noundef nonnull %5, ptr noundef %0, i1 noundef zeroext false, i1 noundef zeroext false, ptr noundef null, ptr noundef nonnull @.str.486, ptr noundef null, ptr noundef null, ptr noundef nonnull %3, ptr noundef nonnull %4) #8
  %10 = load i32, ptr %4, align 4
  %.not19.i = icmp slt i32 %10, 1
  br i1 %.not19.i, label %12, label %11

11:                                               ; preds = %.critedge
  call void (i32, i32, ptr, ...) @pg_log_generic(i32 noundef 4, i32 noundef 0, ptr noundef nonnull @.str.912, ptr noundef %0) #8
  call void @termPQExpBuffer(ptr noundef nonnull %3) #8
  call void @llvm.lifetime.end.p0(i64 4, ptr nonnull %4) #8
  call void @llvm.lifetime.end.p0(i64 24, ptr nonnull %3) #8
  call void @termPQExpBuffer(ptr noundef nonnull %5) #8
  br label %20

12:                                               ; preds = %.critedge
  call void @termPQExpBuffer(ptr noundef nonnull %3) #8
  call void @llvm.lifetime.end.p0(i64 4, ptr nonnull %4) #8
  call void @llvm.lifetime.end.p0(i64 24, ptr nonnull %3) #8
  call void @appendPQExpBufferStr(ptr noundef nonnull %5, ptr noundef nonnull @.str.23) #8
  %13 = load ptr, ptr %5, align 8
  %14 = call ptr @PSQLexec(ptr noundef %13) #8
  call void @termPQExpBuffer(ptr noundef nonnull %5) #8
  %.not = icmp eq ptr %14, null
  br i1 %.not, label %20, label %15

15:                                               ; preds = %12
  %16 = getelementptr inbounds nuw i8, ptr %6, i64 128
  store ptr @.str.487, ptr %16, align 8
  %17 = getelementptr inbounds nuw i8, ptr %6, i64 144
  store i8 1, ptr %17, align 8
  %18 = load ptr, ptr getelementptr inbounds nuw (i8, ptr @pset, i64 16), align 8
  %19 = load ptr, ptr getelementptr inbounds nuw (i8, ptr @pset, i64 376), align 8
  call void @printQuery(ptr noundef nonnull %14, ptr noundef nonnull %6, ptr noundef %18, i1 noundef zeroext false, ptr noundef %19) #8
  call void @PQclear(ptr noundef nonnull %14) #8
  br label %20

20:                                               ; preds = %12, %15, %11
  %.0 = phi i1 [ true, %15 ], [ false, %11 ], [ false, %12 ]
  call void @llvm.lifetime.end.p0(i64 168, ptr nonnull %6) #8
  call void @llvm.lifetime.end.p0(i64 24, ptr nonnull %5) #8
  ret i1 %.0
}